; ModuleID = 'source-C-CXX/3/288.c'
source_filename = "source-C-CXX/3/288.c"
target datalayout = "e-m:e-p270:32:32-p271:32:32-p272:64:64-i64:64-f80:128-n8:16:32:64-S128"
target triple = "x86_64-pc-linux-gnu"

@main.a = internal global [105 x [105 x i32]] zeroinitializer, align 16
@.str = private unnamed_addr constant [6 x i8] c"%d %d\00", align 1
@.str.1 = private unnamed_addr constant [3 x i8] c"%d\00", align 1
@.str.2 = private unnamed_addr constant [4 x i8] c"%d\0A\00", align 1

; Function Attrs: nofree nounwind sspstrong uwtable
define dso_local i32 @main() local_unnamed_addr #0 {
  %1 = alloca i32, align 4
  %2 = alloca i32, align 4
  %3 = bitcast i32* %1 to i8*
  call void @llvm.lifetime.start.p0i8(i64 4, i8* nonnull %3) #3
  %4 = bitcast i32* %2 to i8*
  call void @llvm.lifetime.start.p0i8(i64 4, i8* nonnull %4) #3
  %5 = call i32 (i8*, ...) @__isoc99_scanf(i8* getelementptr inbounds ([6 x i8], [6 x i8]* @.str, i64 0, i64 0), i32* nonnull %1, i32* nonnull %2)
  %6 = load i32, i32* %1, align 4, !tbaa !5
  %7 = icmp sgt i32 %6, 0
  br i1 %7, label %8, label %71

8:                                                ; preds = %0
  %9 = load i32, i32* %2, align 4, !tbaa !5
  %10 = icmp sgt i32 %9, 0
  br i1 %10, label %11, label %18

11:                                               ; preds = %8, %30
  %12 = phi i32 [ %31, %30 ], [ %6, %8 ]
  %13 = phi i32 [ %32, %30 ], [ %9, %8 ]
  %14 = phi i64 [ %33, %30 ], [ 0, %8 ]
  %15 = icmp sgt i32 %13, 0
  br i1 %15, label %20, label %30

16:                                               ; preds = %30
  %17 = icmp sgt i32 %31, 0
  br i1 %17, label %18, label %71

18:                                               ; preds = %8, %16
  %19 = phi i32 [ %6, %8 ], [ %31, %16 ]
  br label %36

20:                                               ; preds = %11, %20
  %21 = phi i64 [ %24, %20 ], [ 0, %11 ]
  %22 = getelementptr inbounds [105 x [105 x i32]], [105 x [105 x i32]]* @main.a, i64 0, i64 %14, i64 %21
  %23 = call i32 (i8*, ...) @__isoc99_scanf(i8* getelementptr inbounds ([3 x i8], [3 x i8]* @.str.1, i64 0, i64 0), i32* nonnull %22)
  %24 = add nuw nsw i64 %21, 1
  %25 = load i32, i32* %2, align 4, !tbaa !5
  %26 = sext i32 %25 to i64
  %27 = icmp slt i64 %24, %26
  br i1 %27, label %20, label %28, !llvm.loop !9

28:                                               ; preds = %20
  %29 = load i32, i32* %1, align 4, !tbaa !5
  br label %30

30:                                               ; preds = %28, %11
  %31 = phi i32 [ %29, %28 ], [ %12, %11 ]
  %32 = phi i32 [ %25, %28 ], [ %13, %11 ]
  %33 = add nuw nsw i64 %14, 1
  %34 = sext i32 %31 to i64
  %35 = icmp slt i64 %33, %34
  br i1 %35, label %11, label %16, !llvm.loop !11

36:                                               ; preds = %18, %60
  %37 = phi i32 [ %61, %60 ], [ %19, %18 ]
  %38 = phi i32 [ %69, %60 ], [ 0, %18 ]
  %39 = phi i32 [ %66, %60 ], [ 0, %18 ]
  %40 = add nuw nsw i32 %38, %39
  %41 = icmp slt i32 %39, %37
  br i1 %41, label %42, label %60

42:                                               ; preds = %36
  %43 = zext i32 %39 to i64
  br label %44

44:                                               ; preds = %44, %42
  %45 = phi i32 [ %38, %42 ], [ %57, %44 ]
  %46 = phi i32 [ %39, %42 ], [ %53, %44 ]
  %47 = phi i64 [ %43, %42 ], [ %52, %44 ]
  %48 = zext i32 %45 to i64
  %49 = getelementptr inbounds [105 x [105 x i32]], [105 x [105 x i32]]* @main.a, i64 0, i64 %47, i64 %48
  %50 = load i32, i32* %49, align 4, !tbaa !5
  %51 = call i32 (i8*, ...) @printf(i8* nonnull dereferenceable(1) getelementptr inbounds ([4 x i8], [4 x i8]* @.str.2, i64 0, i64 0), i32 %50)
  %52 = add nuw nsw i64 %47, 1
  %53 = add nuw nsw i32 %46, 1
  %54 = load i32, i32* %1, align 4, !tbaa !5
  %55 = trunc i64 %52 to i32
  %56 = icmp sgt i32 %54, %55
  %57 = sub nsw i32 %40, %53
  %58 = icmp sgt i32 %57, -1
  %59 = select i1 %56, i1 %58, i1 false
  br i1 %59, label %44, label %60, !llvm.loop !13

60:                                               ; preds = %44, %36
  %61 = phi i32 [ %37, %36 ], [ %54, %44 ]
  %62 = load i32, i32* %2, align 4, !tbaa !5
  %63 = add nsw i32 %62, -1
  %64 = icmp eq i32 %38, %63
  %65 = zext i1 %64 to i32
  %66 = add nuw nsw i32 %39, %65
  %67 = xor i1 %64, true
  %68 = zext i1 %67 to i32
  %69 = add nuw nsw i32 %38, %68
  %70 = icmp slt i32 %66, %61
  br i1 %70, label %36, label %71, !llvm.loop !14

71:                                               ; preds = %60, %0, %16
  call void @llvm.lifetime.end.p0i8(i64 4, i8* nonnull %4) #3
  call void @llvm.lifetime.end.p0i8(i64 4, i8* nonnull %3) #3
  ret i32 0
}

; Function Attrs: argmemonly mustprogress nofree nosync nounwind willreturn
declare void @llvm.lifetime.start.p0i8(i64 immarg, i8* nocapture) #1

; Function Attrs: nofree nounwind
declare noundef i32 @__isoc99_scanf(i8* nocapture noundef readonly, ...) local_unnamed_addr #2

; Function Attrs: nofree nounwind
declare noundef i32 @printf(i8* nocapture noundef readonly, ...) local_unnamed_addr #2

; Function Attrs: argmemonly mustprogress nofree nosync nounwind willreturn
declare void @llvm.lifetime.end.p0i8(i64 immarg, i8* nocapture) #1


!llvm.module.flags = !{!0, !1, !2, !3}
!llvm.ident = !{!4}

!0 = !{i32 1, !"wchar_size", i32 4}
!1 = !{i32 7, !"PIC Level", i32 2}
!2 = !{i32 7, !"PIE Level", i32 2}
!3 = !{i32 7, !"uwtable", i32 1}
!4 = !{!"clang version 13.0.0"}
!5 = !{!6, !6, i64 0}
!6 = !{!"int", !7, i64 0}
!7 = !{!"omnipotent char", !8, i64 0}
!8 = !{!"Simple C/C++ TBAA"}
!9 = distinct !{!9, !10}
!10 = !{!"llvm.loop.mustprogress"}
!11 = distinct !{!11, !10, !12}
!12 = !{!"llvm.loop.unswitch.partial.disable"}
!13 = distinct !{!13, !10}
!14 = distinct !{!14, !10}
